#include <math.h>
#include <stdio.h>
#include <stdlib.h>
#include <string.h>

int main()
{
	int n,k,j,m;
	int a[1000];
	scanf("%d %d",&n,&k);
	for(int i=0;i<n;i++){
		scanf("%d",&a[i]);
	}
	for(j=0;j<n;j++){
		for(m=0;m<n;m++){
			if((a[j]+a[m])==k){
				printf("yes");
				break;
			}
		}
		if((a[j]+a[m])==k){
				break;
		}else if(j==n-1){
			printf("no");
		}
	}
	return 0;
}