; ModuleID = 'source-C-CXX/2/1418.c'
source_filename = "source-C-CXX/2/1418.c"
target datalayout = "e-m:e-p270:32:32-p271:32:32-p272:64:64-i64:64-f80:128-n8:16:32:64-S128"
target triple = "x86_64-pc-linux-gnu"

@.str = private unnamed_addr constant [6 x i8] c"%d %d\00", align 1
@.str.1 = private unnamed_addr constant [3 x i8] c"%d\00", align 1
@.str.2 = private unnamed_addr constant [4 x i8] c"yes\00", align 1
@.str.3 = private unnamed_addr constant [3 x i8] c"no\00", align 1

; Function Attrs: nofree nounwind sspstrong uwtable
define dso_local i32 @main() local_unnamed_addr #0 {
  %1 = alloca i32, align 4
  %2 = alloca i32, align 4
  %3 = alloca [1000 x i32], align 16
  %4 = bitcast i32* %1 to i8*
  call void @llvm.lifetime.start.p0i8(i64 4, i8* nonnull %4) #3
  %5 = bitcast i32* %2 to i8*
  call void @llvm.lifetime.start.p0i8(i64 4, i8* nonnull %5) #3
  %6 = bitcast [1000 x i32]* %3 to i8*
  call void @llvm.lifetime.start.p0i8(i64 4000, i8* nonnull %6) #3
  %7 = call i32 (i8*, ...) @__isoc99_scanf(i8* getelementptr inbounds ([6 x i8], [6 x i8]* @.str, i64 0, i64 0), i32* nonnull %1, i32* nonnull %2)
  %8 = load i32, i32* %1, align 4, !tbaa !5
  %9 = icmp sgt i32 %8, 0
  br i1 %9, label %12, label %67

10:                                               ; preds = %12
  %11 = icmp sgt i32 %17, 0
  br i1 %11, label %20, label %67

12:                                               ; preds = %0, %12
  %13 = phi i64 [ %16, %12 ], [ 0, %0 ]
  %14 = getelementptr inbounds [1000 x i32], [1000 x i32]* %3, i64 0, i64 %13
  %15 = call i32 (i8*, ...) @__isoc99_scanf(i8* getelementptr inbounds ([3 x i8], [3 x i8]* @.str.1, i64 0, i64 0), i32* nonnull %14)
  %16 = add nuw nsw i64 %13, 1
  %17 = load i32, i32* %1, align 4, !tbaa !5
  %18 = sext i32 %17 to i64
  %19 = icmp slt i64 %16, %18
  br i1 %19, label %12, label %10, !llvm.loop !9

20:                                               ; preds = %10, %62
  %21 = phi i64 [ %64, %62 ], [ 0, %10 ]
  %22 = phi i32 [ %63, %62 ], [ %17, %10 ]
  %23 = load i32, i32* %2, align 4
  %24 = icmp sgt i32 %22, 0
  br i1 %24, label %25, label %44

25:                                               ; preds = %20
  %26 = getelementptr inbounds [1000 x i32], [1000 x i32]* %3, i64 0, i64 %21
  %27 = load i32, i32* %26, align 4, !tbaa !5
  %28 = add nsw i32 %22, -1
  %29 = zext i32 %28 to i64
  %30 = add nuw nsw i64 %29, 1
  %31 = zext i32 %22 to i64
  br label %32

32:                                               ; preds = %25, %41
  %33 = phi i64 [ 0, %25 ], [ %42, %41 ]
  %34 = getelementptr inbounds [1000 x i32], [1000 x i32]* %3, i64 0, i64 %33
  %35 = load i32, i32* %34, align 4, !tbaa !5
  %36 = add nsw i32 %35, %27
  %37 = icmp eq i32 %36, %23
  br i1 %37, label %38, label %41

38:                                               ; preds = %32
  %39 = call i32 (i8*, ...) @printf(i8* nonnull dereferenceable(1) getelementptr inbounds ([4 x i8], [4 x i8]* @.str.2, i64 0, i64 0))
  %40 = load i32, i32* %2, align 4, !tbaa !5
  br label %44

41:                                               ; preds = %32
  %42 = add nuw nsw i64 %33, 1
  %43 = icmp eq i64 %42, %31
  br i1 %43, label %44, label %32, !llvm.loop !11

44:                                               ; preds = %41, %20, %38
  %45 = phi i32 [ %40, %38 ], [ %23, %20 ], [ %23, %41 ]
  %46 = phi i64 [ %33, %38 ], [ 0, %20 ], [ %30, %41 ]
  %47 = getelementptr inbounds [1000 x i32], [1000 x i32]* %3, i64 0, i64 %21
  %48 = load i32, i32* %47, align 4, !tbaa !5
  %49 = and i64 %46, 4294967295
  %50 = getelementptr inbounds [1000 x i32], [1000 x i32]* %3, i64 0, i64 %49
  %51 = load i32, i32* %50, align 4, !tbaa !5
  %52 = add nsw i32 %51, %48
  %53 = icmp eq i32 %52, %45
  br i1 %53, label %67, label %54

54:                                               ; preds = %44
  %55 = load i32, i32* %1, align 4, !tbaa !5
  %56 = add nsw i32 %55, -1
  %57 = zext i32 %56 to i64
  %58 = icmp eq i64 %21, %57
  br i1 %58, label %59, label %62

59:                                               ; preds = %54
  %60 = call i32 (i8*, ...) @printf(i8* nonnull dereferenceable(1) getelementptr inbounds ([3 x i8], [3 x i8]* @.str.3, i64 0, i64 0))
  %61 = load i32, i32* %1, align 4, !tbaa !5
  br label %62

62:                                               ; preds = %59, %54
  %63 = phi i32 [ %61, %59 ], [ %55, %54 ]
  %64 = add nuw nsw i64 %21, 1
  %65 = sext i32 %63 to i64
  %66 = icmp slt i64 %64, %65
  br i1 %66, label %20, label %67, !llvm.loop !12

67:                                               ; preds = %62, %44, %0, %10
  call void @llvm.lifetime.end.p0i8(i64 4000, i8* nonnull %6) #3
  call void @llvm.lifetime.end.p0i8(i64 4, i8* nonnull %5) #3
  call void @llvm.lifetime.end.p0i8(i64 4, i8* nonnull %4) #3
  ret i32 0
}

; Function Attrs: argmemonly mustprogress nofree nosync nounwind willreturn
declare void @llvm.lifetime.start.p0i8(i64 immarg, i8* nocapture) #1

; Function Attrs: nofree nounwind
declare noundef i32 @__isoc99_scanf(i8* nocapture noundef readonly, ...) local_unnamed_addr #2

; Function Attrs: argmemonly mustprogress nofree nosync nounwind willreturn
declare void @llvm.lifetime.end.p0i8(i64 immarg, i8* nocapture) #1

; Function Attrs: nofree nounwind
declare noundef i32 @printf(i8* nocapture noundef readonly, ...) local_unnamed_addr #2


!llvm.module.flags = !{!0, !1, !2, !3}
!llvm.ident = !{!4}

!0 = !{i32 1, !"wchar_size", i32 4}
!1 = !{i32 7, !"PIC Level", i32 2}
!2 = !{i32 7, !"PIE Level", i32 2}
!3 = !{i32 7, !"uwtable", i32 1}
!4 = !{!"clang version 13.0.0"}
!5 = !{!6, !6, i64 0}
!6 = !{!"int", !7, i64 0}
!7 = !{!"omnipotent char", !8, i64 0}
!8 = !{!"Simple C/C++ TBAA"}
!9 = distinct !{!9, !10}
!10 = !{!"llvm.loop.mustprogress"}
!11 = distinct !{!11, !10}
!12 = distinct !{!12, !10}
